target datalayout = "e-m:e-p270:32:32-p271:32:32-p272:64:64-i64:64-i128:128-f80:128-n8:16:32:64-S128"
target triple = "x86_64-pc-linux-gnu"

%struct.Ivy_FraigParams_t_ = type { i32, double, i32, i32, double, double, i32, i32, i32, i32, i32 }
%struct.Abc_Ntk_t_ = type { i32, i32, ptr, ptr, ptr, ptr, ptr, ptr, ptr, ptr, ptr, ptr, ptr, [11 x i32], i32, i32, i32, i32, ptr, i32, ptr, ptr, i32, i32, i32, double, i32, %struct.Vec_Int_t_, ptr, ptr, ptr, ptr, ptr, float, i32, ptr, ptr, ptr, ptr, ptr, ptr, ptr, ptr, ptr, ptr, ptr, ptr, ptr, ptr, ptr, ptr, ptr, ptr, ptr, ptr, ptr, ptr }
%struct.Vec_Int_t_ = type { i32, i32, ptr }
%struct.Ivy_Man_t_ = type { ptr, ptr, ptr, ptr, ptr, %struct.Ivy_Obj_t_, [8 x i32], i32, i32, ptr, i32, i32, i32, i32, ptr, i32, ptr, ptr, ptr, i32, ptr, ptr, ptr, i64, i64 }
%struct.Ivy_Obj_t_ = type { i32, i32, i32, i32, ptr, ptr, ptr, ptr, ptr, ptr, ptr, ptr }
%struct.Vec_Ptr_t_ = type { i32, i32, ptr }

@.str = private unnamed_addr constant [25 x i8] c"Frames have %6d nodes.  \00", align 1
@.str.1 = private unnamed_addr constant [22 x i8] c"Fraig has %6d nodes.\0A\00", align 1

; Function Attrs: nounwind uwtable
define void @Abc_NtkBmc(ptr noundef %0, i32 noundef %1, i32 noundef %2, i32 noundef %3) #0 {
  %5 = alloca ptr, align 8
  %6 = alloca i32, align 4
  %7 = alloca i32, align 4
  %8 = alloca i32, align 4
  %9 = alloca %struct.Ivy_FraigParams_t_, align 8
  %10 = alloca ptr, align 8
  %11 = alloca ptr, align 8
  %12 = alloca ptr, align 8
  %13 = alloca ptr, align 8
  %14 = alloca ptr, align 8
  store ptr %0, ptr %5, align 8, !tbaa !3
  store i32 %1, ptr %6, align 4, !tbaa !8
  store i32 %2, ptr %7, align 4, !tbaa !8
  store i32 %3, ptr %8, align 4, !tbaa !8
  call void @llvm.lifetime.start.p0(i64 64, ptr %9) #5
  call void @llvm.lifetime.start.p0(i64 8, ptr %10) #5
  store ptr %9, ptr %10, align 8, !tbaa !10
  call void @llvm.lifetime.start.p0(i64 8, ptr %11) #5
  call void @llvm.lifetime.start.p0(i64 8, ptr %12) #5
  call void @llvm.lifetime.start.p0(i64 8, ptr %13) #5
  call void @llvm.lifetime.start.p0(i64 8, ptr %14) #5
  %15 = load ptr, ptr %5, align 8, !tbaa !3
  %16 = call ptr @Abc_NtkIvyBefore(ptr noundef %15, i32 noundef 0, i32 noundef 0)
  store ptr %16, ptr %11, align 8, !tbaa !12
  %17 = load ptr, ptr %11, align 8, !tbaa !12
  %18 = load ptr, ptr %5, align 8, !tbaa !3
  %19 = call i32 @Abc_NtkLatchNum(ptr noundef %18)
  %20 = load i32, ptr %6, align 4, !tbaa !8
  %21 = load i32, ptr %7, align 4, !tbaa !8
  %22 = call ptr @Ivy_ManFrames(ptr noundef %17, i32 noundef %19, i32 noundef %20, i32 noundef %21, ptr noundef %14)
  store ptr %22, ptr %12, align 8, !tbaa !12
  %23 = load ptr, ptr %10, align 8, !tbaa !10
  call void @Ivy_FraigParamsDefault(ptr noundef %23)
  %24 = load ptr, ptr %10, align 8, !tbaa !10
  %25 = getelementptr inbounds nuw %struct.Ivy_FraigParams_t_, ptr %24, i32 0, i32 9
  store i32 1000000000, ptr %25, align 4, !tbaa !14
  %26 = load ptr, ptr %10, align 8, !tbaa !10
  %27 = getelementptr inbounds nuw %struct.Ivy_FraigParams_t_, ptr %26, i32 0, i32 7
  store i32 0, ptr %27, align 4, !tbaa !17
  %28 = load ptr, ptr %10, align 8, !tbaa !10
  %29 = getelementptr inbounds nuw %struct.Ivy_FraigParams_t_, ptr %28, i32 0, i32 6
  store i32 0, ptr %29, align 8, !tbaa !18
  %30 = load ptr, ptr %12, align 8, !tbaa !12
  %31 = load ptr, ptr %10, align 8, !tbaa !10
  %32 = call ptr @Ivy_FraigPerform(ptr noundef %30, ptr noundef %31)
  store ptr %32, ptr %13, align 8, !tbaa !12
  %33 = load ptr, ptr %12, align 8, !tbaa !12
  %34 = call i32 @Ivy_ManNodeNum(ptr noundef %33)
  %35 = call i32 (ptr, ...) @printf(ptr noundef @.str, i32 noundef %34)
  %36 = load ptr, ptr %13, align 8, !tbaa !12
  %37 = call i32 @Ivy_ManNodeNum(ptr noundef %36)
  %38 = call i32 (ptr, ...) @printf(ptr noundef @.str.1, i32 noundef %37)
  %39 = load ptr, ptr %14, align 8, !tbaa !19
  call void @Vec_PtrFree(ptr noundef %39)
  %40 = load ptr, ptr %13, align 8, !tbaa !12
  call void @Ivy_ManStop(ptr noundef %40)
  %41 = load ptr, ptr %12, align 8, !tbaa !12
  call void @Ivy_ManStop(ptr noundef %41)
  %42 = load ptr, ptr %11, align 8, !tbaa !12
  call void @Ivy_ManStop(ptr noundef %42)
  call void @llvm.lifetime.end.p0(i64 8, ptr %14) #5
  call void @llvm.lifetime.end.p0(i64 8, ptr %13) #5
  call void @llvm.lifetime.end.p0(i64 8, ptr %12) #5
  call void @llvm.lifetime.end.p0(i64 8, ptr %11) #5
  call void @llvm.lifetime.end.p0(i64 8, ptr %10) #5
  call void @llvm.lifetime.end.p0(i64 64, ptr %9) #5
  ret void
}

; Function Attrs: nocallback nofree nosync nounwind willreturn memory(argmem: readwrite)
declare void @llvm.lifetime.start.p0(i64 immarg, ptr captures(none)) #1

declare ptr @Abc_NtkIvyBefore(ptr noundef, i32 noundef, i32 noundef) #2

declare ptr @Ivy_ManFrames(ptr noundef, i32 noundef, i32 noundef, i32 noundef, ptr noundef) #2

; Function Attrs: inlinehint nounwind uwtable
define internal i32 @Abc_NtkLatchNum(ptr noundef %0) #3 {
  %2 = alloca ptr, align 8
  store ptr %0, ptr %2, align 8, !tbaa !3
  %3 = load ptr, ptr %2, align 8, !tbaa !3
  %4 = getelementptr inbounds nuw %struct.Abc_Ntk_t_, ptr %3, i32 0, i32 13
  %5 = getelementptr inbounds [11 x i32], ptr %4, i64 0, i64 8
  %6 = load i32, ptr %5, align 8, !tbaa !8
  ret i32 %6
}

declare void @Ivy_FraigParamsDefault(ptr noundef) #2

declare ptr @Ivy_FraigPerform(ptr noundef, ptr noundef) #2

declare i32 @printf(ptr noundef, ...) #2

; Function Attrs: inlinehint nounwind uwtable
define internal i32 @Ivy_ManNodeNum(ptr noundef %0) #3 {
  %2 = alloca ptr, align 8
  store ptr %0, ptr %2, align 8, !tbaa !12
  %3 = load ptr, ptr %2, align 8, !tbaa !12
  %4 = getelementptr inbounds nuw %struct.Ivy_Man_t_, ptr %3, i32 0, i32 6
  %5 = getelementptr inbounds [8 x i32], ptr %4, i64 0, i64 5
  %6 = load i32, ptr %5, align 4, !tbaa !8
  %7 = load ptr, ptr %2, align 8, !tbaa !12
  %8 = getelementptr inbounds nuw %struct.Ivy_Man_t_, ptr %7, i32 0, i32 6
  %9 = getelementptr inbounds [8 x i32], ptr %8, i64 0, i64 6
  %10 = load i32, ptr %9, align 8, !tbaa !8
  %11 = add nsw i32 %6, %10
  ret i32 %11
}

; Function Attrs: inlinehint nounwind uwtable
define internal void @Vec_PtrFree(ptr noundef %0) #3 {
  %2 = alloca ptr, align 8
  store ptr %0, ptr %2, align 8, !tbaa !19
  %3 = load ptr, ptr %2, align 8, !tbaa !19
  %4 = getelementptr inbounds nuw %struct.Vec_Ptr_t_, ptr %3, i32 0, i32 2
  %5 = load ptr, ptr %4, align 8, !tbaa !21
  %6 = icmp ne ptr %5, null
  br i1 %6, label %7, label %13

7:                                                ; preds = %1
  %8 = load ptr, ptr %2, align 8, !tbaa !19
  %9 = getelementptr inbounds nuw %struct.Vec_Ptr_t_, ptr %8, i32 0, i32 2
  %10 = load ptr, ptr %9, align 8, !tbaa !21
  call void @free(ptr noundef %10) #5
  %11 = load ptr, ptr %2, align 8, !tbaa !19
  %12 = getelementptr inbounds nuw %struct.Vec_Ptr_t_, ptr %11, i32 0, i32 2
  store ptr null, ptr %12, align 8, !tbaa !21
  br label %14

13:                                               ; preds = %1
  br label %14

14:                                               ; preds = %13, %7
  %15 = load ptr, ptr %2, align 8, !tbaa !19
  %16 = icmp ne ptr %15, null
  br i1 %16, label %17, label %19

17:                                               ; preds = %14
  %18 = load ptr, ptr %2, align 8, !tbaa !19
  call void @free(ptr noundef %18) #5
  store ptr null, ptr %2, align 8, !tbaa !19
  br label %20

19:                                               ; preds = %14
  br label %20

20:                                               ; preds = %19, %17
  ret void
}

declare void @Ivy_ManStop(ptr noundef) #2

; Function Attrs: nocallback nofree nosync nounwind willreturn memory(argmem: readwrite)
declare void @llvm.lifetime.end.p0(i64 immarg, ptr captures(none)) #1

; Function Attrs: nounwind
declare void @free(ptr noundef) #4


!llvm.module.flags = !{!0, !1, !2}

!0 = !{i32 1, !"wchar_size", i32 4}
!1 = !{i32 8, !"PIC Level", i32 2}
!2 = !{i32 7, !"uwtable", i32 2}
!3 = !{!4, !4, i64 0}
!4 = !{!"p1 _ZTS10Abc_Ntk_t_", !5, i64 0}
!5 = !{!"any pointer", !6, i64 0}
!6 = !{!"omnipotent char", !7, i64 0}
!7 = !{!"Simple C/C++ TBAA"}
!8 = !{!9, !9, i64 0}
!9 = !{!"int", !6, i64 0}
!10 = !{!11, !11, i64 0}
!11 = !{!"p1 _ZTS18Ivy_FraigParams_t_", !5, i64 0}
!12 = !{!13, !13, i64 0}
!13 = !{!"p1 _ZTS10Ivy_Man_t_", !5, i64 0}
!14 = !{!15, !9, i64 52}
!15 = !{!"Ivy_FraigParams_t_", !9, i64 0, !16, i64 8, !9, i64 16, !9, i64 20, !16, i64 24, !16, i64 32, !9, i64 40, !9, i64 44, !9, i64 48, !9, i64 52, !9, i64 56}
!16 = !{!"double", !6, i64 0}
!17 = !{!15, !9, i64 44}
!18 = !{!15, !9, i64 40}
!19 = !{!20, !20, i64 0}
!20 = !{!"p1 _ZTS10Vec_Ptr_t_", !5, i64 0}
!21 = !{!22, !5, i64 8}
!22 = !{!"Vec_Ptr_t_", !9, i64 0, !9, i64 4, !5, i64 8}
